; Function Attrs: null_pointer_is_valid sspstrong uwtable
define i32 @oid_encoded2subid_sub(ptr noundef %0, ptr noundef readonly captures(none) %1, i32 noundef %2, ptr noundef captures(none) %3, i1 noundef zeroext %4) local_unnamed_addr #0 {
  %6 = zext i1 %4 to i32
  %7 = icmp sgt i32 %2, 0
  br i1 %7, label %.lr.ph.preheader, label %._crit_edge

.lr.ph.preheader:                                 ; preds = %5
  %wide.trip.count = zext nneg i32 %2 to i64
  br label %.lr.ph

.lr.ph:                                           ; preds = %.lr.ph.preheader, %.lr.ph
  %indvars.iv = phi i64 [ 0, %.lr.ph.preheader ], [ %indvars.iv.next, %.lr.ph ]
  %.06484 = phi i32 [ %6, %.lr.ph.preheader ], [ %spec.select, %.lr.ph ]
  %8 = getelementptr i8, ptr %1, i64 %indvars.iv
  %9 = load i8, ptr %8, align 1
  %.not7282 = icmp sgt i8 %9, -1
  %10 = zext i1 %.not7282 to i32
  %spec.select = add i32 %.06484, %10
  %indvars.iv.next = add nuw nsw i64 %indvars.iv, 1
  %exitcond.not = icmp eq i64 %indvars.iv.next, %wide.trip.count
  br i1 %exitcond.not, label %._crit_edge, label %.lr.ph, !llvm.loop !13

._crit_edge:                                      ; preds = %.lr.ph, %5
  %.064.lcssa = phi i32 [ %6, %5 ], [ %spec.select, %.lr.ph ]
  %11 = zext i32 %.064.lcssa to i64
  %12 = shl nuw nsw i64 %11, 2
  %13 = tail call noalias ptr @wmem_alloc(ptr noundef %0, i64 noundef %12) #8
  store ptr %13, ptr %3, align 8
  %14 = getelementptr i32, ptr %13, i64 %11
  %15 = icmp eq i32 %.064.lcssa, 1
  %or.cond = and i1 %4, %15
  br i1 %or.cond, label %16, label %17

16:                                               ; preds = %._crit_edge
  store i32 0, ptr %13, align 4
  br label %.loopexit

17:                                               ; preds = %._crit_edge
  %18 = icmp ne i32 %.064.lcssa, 0
  %or.cond3.not = or i1 %4, %18
  %brmerge.not = and i1 %7, %or.cond3.not
  br i1 %brmerge.not, label %.lr.ph89.preheader, label %.loopexit

.lr.ph89.preheader:                               ; preds = %17
  %wide.trip.count93 = zext nneg i32 %2 to i64
  br label %.lr.ph89

.lr.ph89:                                         ; preds = %.lr.ph89.preheader, %41
  %indvars.iv91 = phi i64 [ 0, %.lr.ph89.preheader ], [ %indvars.iv.next92, %41 ]
  %.05588 = phi i64 [ 0, %.lr.ph89.preheader ], [ %.156.ph, %41 ]
  %.05887 = phi i1 [ %4, %.lr.ph89.preheader ], [ %.159.ph, %41 ]
  %.06186 = phi ptr [ %13, %.lr.ph89.preheader ], [ %.162.ph, %41 ]
  %19 = getelementptr i8, ptr %1, i64 %indvars.iv91
  %20 = load i8, ptr %19, align 1
  %21 = shl i64 %.05588, 7
  %22 = and i8 %20, 127
  %23 = zext nneg i8 %22 to i64
  %24 = or disjoint i64 %21, %23
  %.not = icmp sgt i8 %20, -1
  br i1 %.not, label %25, label %41

25:                                               ; preds = %.lr.ph89
  br i1 %.05887, label %26, label %33

26:                                               ; preds = %25
  %27 = icmp ugt i64 %24, 39
  %28 = add i64 %24, -40
  %spec.select73 = select i1 %27, i64 %28, i64 %24
  %spec.select74 = zext i1 %27 to i32
  %29 = icmp ugt i64 %spec.select73, 39
  %30 = select i1 %27, i32 2, i32 1
  %31 = add i64 %spec.select73, -40
  %.4 = select i1 %29, i64 %31, i64 %spec.select73
  %.1 = select i1 %29, i32 %30, i32 %spec.select74
  %32 = getelementptr i8, ptr %.06186, i64 4
  store i32 %.1, ptr %.06186, align 4
  br label %33

33:                                               ; preds = %26, %25
  %.263 = phi ptr [ %32, %26 ], [ %.06186, %25 ]
  %.257 = phi i64 [ %.4, %26 ], [ %24, %25 ]
  %34 = icmp uge ptr %.263, %14
  %35 = icmp ugt i64 %.257, 4294967295
  %or.cond5 = select i1 %34, i1 true, i1 %35
  br i1 %or.cond5, label %39, label %36

36:                                               ; preds = %33
  %37 = trunc nuw i64 %.257 to i32
  %38 = getelementptr i8, ptr %.263, i64 4
  store i32 %37, ptr %.263, align 4
  br label %41

39:                                               ; preds = %33
  %40 = load ptr, ptr %3, align 8
  tail call void @wmem_free(ptr noundef %0, ptr noundef %40)
  store ptr null, ptr %3, align 8
  br label %.loopexit

41:                                               ; preds = %36, %.lr.ph89
  %.162.ph = phi ptr [ %.06186, %.lr.ph89 ], [ %38, %36 ]
  %.159.ph = phi i1 [ %.05887, %.lr.ph89 ], [ false, %36 ]
  %.156.ph = phi i64 [ %24, %.lr.ph89 ], [ 0, %36 ]
  %indvars.iv.next92 = add nuw nsw i64 %indvars.iv91, 1
  %exitcond94.not = icmp eq i64 %indvars.iv.next92, %wide.trip.count93
  br i1 %exitcond94.not, label %.loopexit, label %.lr.ph89, !llvm.loop !14

.loopexit:                                        ; preds = %41, %17, %39, %16
  %.052 = phi i32 [ 1, %16 ], [ 0, %39 ], [ %.064.lcssa, %17 ], [ %.064.lcssa, %41 ]
  ret i32 %.052
}